target datalayout = "e-m:e-p270:32:32-p271:32:32-p272:64:64-i64:64-i128:128-f80:128-n8:16:32:64-S128"
target triple = "x86_64-pc-linux-gnu"

%struct.ZSTD_customMem = type { ptr, ptr, ptr }
%struct.ZSTD_frameParameters = type { i32, i32, i32 }
%struct.ZSTD_compressionParameters = type { i32, i32, i32, i32, i32, i32, i32 }
%struct.ZSTD_CCtx_params_s = type { i32, %struct.ZSTD_compressionParameters, %struct.ZSTD_frameParameters, i32, i32, i64, i32, i32, i32, i32, i64, i32, i32, %struct.ldmParams_t, i32, i32, i32, i32, i32, i32, i32, i32, %struct.ZSTD_customMem, i32, i32, i32, i64, i32 }
%struct.ldmParams_t = type { i32, i32, i32, i32, i32, i32 }
%struct.ZSTD_cwksp = type { ptr, ptr, ptr, ptr, ptr, ptr, ptr, i8, i32, i32, i32 }
%struct.ZSTD_window_t = type { ptr, ptr, ptr, i32, i32, i32 }
%struct.ZSTD_matchState_t = type { %struct.ZSTD_window_t, i32, i32, i32, i32, ptr, [8 x i32], i64, i32, ptr, ptr, ptr, i32, i32, %struct.optState_t, ptr, %struct.ZSTD_compressionParameters, ptr, i32, i32 }
%struct.optState_t = type { ptr, ptr, ptr, ptr, ptr, ptr, i32, i32, i32, i32, i32, i32, i32, i32, i32, ptr, i32 }
%struct.ZSTD_parameters = type { %struct.ZSTD_compressionParameters, %struct.ZSTD_frameParameters }
%struct.ZSTD_compressedBlockState_t = type { %struct.ZSTD_entropyCTables_t, [3 x i32] }
%struct.ZSTD_entropyCTables_t = type { %struct.ZSTD_hufCTables_t, %struct.ZSTD_fseCTables_t }
%struct.ZSTD_hufCTables_t = type { [257 x i64], i32 }
%struct.ZSTD_fseCTables_t = type { [193 x i32], [363 x i32], [329 x i32], i32, i32, i32 }
%struct.ZSTD_CDict_s = type { ptr, i64, i32, ptr, %struct.ZSTD_cwksp, %struct.ZSTD_matchState_t, %struct.ZSTD_compressedBlockState_t, %struct.ZSTD_customMem, i32, i32, i32 }

; Function Attrs: nounwind uwtable
define internal i32 @ZSTD_rowMatchFinderSupported(i32 noundef %0) #0 {
  %2 = alloca i32, align 4
  store i32 %0, ptr %2, align 4
  %3 = load i32, ptr %2, align 4
  %4 = icmp uge i32 %3, 3
  br i1 %4, label %5, label %8

5:                                                ; preds = %1
  %6 = load i32, ptr %2, align 4
  %7 = icmp ule i32 %6, 5
  br label %8

8:                                                ; preds = %5, %1
  %9 = phi i1 [ false, %1 ], [ %7, %5 ]
  %10 = zext i1 %9 to i32
  ret i32 %10
}

; Function Attrs: nounwind uwtable
define internal i32 @ZSTD_countLeadingZeros32(i32 noundef %0) #0 {
  %2 = alloca i32, align 4
  store i32 %0, ptr %2, align 4
  %3 = load i32, ptr %2, align 4
  %4 = call i32 @llvm.ctlz.i32(i32 %3, i1 true)
  ret i32 %4
}

; Function Attrs: nounwind uwtable
define internal i32 @ZSTD_resolveExternalRepcodeSearch(i32 noundef %0, i32 noundef %1) #0 {
  %3 = alloca i32, align 4
  %4 = alloca i32, align 4
  %5 = alloca i32, align 4
  store i32 %0, ptr %4, align 4
  store i32 %1, ptr %5, align 4
  %6 = load i32, ptr %4, align 4
  %7 = icmp ne i32 %6, 0
  br i1 %7, label %8, label %10

8:                                                ; preds = %2
  %9 = load i32, ptr %4, align 4
  store i32 %9, ptr %3, align 4
  br label %15

10:                                               ; preds = %2
  %11 = load i32, ptr %5, align 4
  %12 = icmp slt i32 %11, 10
  br i1 %12, label %13, label %14

13:                                               ; preds = %10
  store i32 2, ptr %3, align 4
  br label %15

14:                                               ; preds = %10
  store i32 1, ptr %3, align 4
  br label %15

15:                                               ; preds = %14, %13, %8
  %16 = load i32, ptr %3, align 4
  ret i32 %16
}

; Function Attrs: nounwind uwtable
define internal i64 @ZSTD_resolveMaxBlockSize(i64 noundef %0) #0 {
  %2 = alloca i64, align 8
  %3 = alloca i64, align 8
  store i64 %0, ptr %3, align 8
  %4 = load i64, ptr %3, align 8
  %5 = icmp eq i64 %4, 0
  br i1 %5, label %6, label %7

6:                                                ; preds = %1
  store i64 131072, ptr %2, align 8
  br label %9

7:                                                ; preds = %1
  %8 = load i64, ptr %3, align 8
  store i64 %8, ptr %2, align 8
  br label %9

9:                                                ; preds = %7, %6
  %10 = load i64, ptr %2, align 8
  ret i64 %10
}

; Function Attrs: nounwind uwtable
define internal i32 @ZSTD_resolveExternalSequenceValidation(i32 noundef %0) #0 {
  %2 = alloca i32, align 4
  store i32 %0, ptr %2, align 4
  %3 = load i32, ptr %2, align 4
  ret i32 %3
}

; Function Attrs: nounwind uwtable
define internal i32 @ZSTD_resolveEnableLdm(i32 noundef %0, ptr noundef %1) #0 {
  %3 = alloca i32, align 4
  %4 = alloca i32, align 4
  %5 = alloca ptr, align 8
  store i32 %0, ptr %4, align 4
  store ptr %1, ptr %5, align 8
  %6 = load i32, ptr %4, align 4
  %7 = icmp ne i32 %6, 0
  br i1 %7, label %8, label %10

8:                                                ; preds = %2
  %9 = load i32, ptr %4, align 4
  store i32 %9, ptr %3, align 4
  br label %23

10:                                               ; preds = %2
  %11 = load ptr, ptr %5, align 8
  %12 = getelementptr inbounds %struct.ZSTD_compressionParameters, ptr %11, i32 0, i32 6
  %13 = load i32, ptr %12, align 4
  %14 = icmp uge i32 %13, 7
  br i1 %14, label %15, label %20

15:                                               ; preds = %10
  %16 = load ptr, ptr %5, align 8
  %17 = getelementptr inbounds %struct.ZSTD_compressionParameters, ptr %16, i32 0, i32 0
  %18 = load i32, ptr %17, align 4
  %19 = icmp uge i32 %18, 27
  br label %20

20:                                               ; preds = %15, %10
  %21 = phi i1 [ false, %10 ], [ %19, %15 ]
  %22 = select i1 %21, i32 1, i32 2
  store i32 %22, ptr %3, align 4
  br label %23

23:                                               ; preds = %20, %8
  %24 = load i32, ptr %3, align 4
  ret i32 %24
}

; Function Attrs: nounwind uwtable
define internal i32 @ZSTD_resolveBlockSplitterMode(i32 noundef %0, ptr noundef %1) #0 {
  %3 = alloca i32, align 4
  %4 = alloca i32, align 4
  %5 = alloca ptr, align 8
  store i32 %0, ptr %4, align 4
  store ptr %1, ptr %5, align 8
  %6 = load i32, ptr %4, align 4
  %7 = icmp ne i32 %6, 0
  br i1 %7, label %8, label %10

8:                                                ; preds = %2
  %9 = load i32, ptr %4, align 4
  store i32 %9, ptr %3, align 4
  br label %23

10:                                               ; preds = %2
  %11 = load ptr, ptr %5, align 8
  %12 = getelementptr inbounds %struct.ZSTD_compressionParameters, ptr %11, i32 0, i32 6
  %13 = load i32, ptr %12, align 4
  %14 = icmp uge i32 %13, 7
  br i1 %14, label %15, label %20

15:                                               ; preds = %10
  %16 = load ptr, ptr %5, align 8
  %17 = getelementptr inbounds %struct.ZSTD_compressionParameters, ptr %16, i32 0, i32 0
  %18 = load i32, ptr %17, align 4
  %19 = icmp uge i32 %18, 17
  br label %20

20:                                               ; preds = %15, %10
  %21 = phi i1 [ false, %10 ], [ %19, %15 ]
  %22 = select i1 %21, i32 1, i32 2
  store i32 %22, ptr %3, align 4
  br label %23

23:                                               ; preds = %20, %8
  %24 = load i32, ptr %3, align 4
  ret i32 %24
}

; Function Attrs: nounwind uwtable
define internal i32 @ZSTD_resolveRowMatchFinderMode(i32 noundef %0, ptr noundef %1) #0 {
  %3 = alloca i32, align 4
  %4 = alloca i32, align 4
  %5 = alloca ptr, align 8
  %6 = alloca i32, align 4
  store i32 %0, ptr %4, align 4
  store ptr %1, ptr %5, align 8
  store i32 1, ptr %6, align 4
  %7 = load i32, ptr %4, align 4
  %8 = icmp ne i32 %7, 0
  br i1 %8, label %9, label %11

9:                                                ; preds = %2
  %10 = load i32, ptr %4, align 4
  store i32 %10, ptr %3, align 4
  br label %27

11:                                               ; preds = %2
  store i32 2, ptr %4, align 4
  %12 = load ptr, ptr %5, align 8
  %13 = getelementptr inbounds %struct.ZSTD_compressionParameters, ptr %12, i32 0, i32 6
  %14 = load i32, ptr %13, align 4
  %15 = call i32 @ZSTD_rowMatchFinderSupported(i32 noundef %14)
  %16 = icmp ne i32 %15, 0
  br i1 %16, label %19, label %17

17:                                               ; preds = %11
  %18 = load i32, ptr %4, align 4
  store i32 %18, ptr %3, align 4
  br label %27

19:                                               ; preds = %11
  %20 = load ptr, ptr %5, align 8
  %21 = getelementptr inbounds %struct.ZSTD_compressionParameters, ptr %20, i32 0, i32 0
  %22 = load i32, ptr %21, align 4
  %23 = icmp ugt i32 %22, 14
  br i1 %23, label %24, label %25

24:                                               ; preds = %19
  store i32 1, ptr %4, align 4
  br label %25

25:                                               ; preds = %24, %19
  %26 = load i32, ptr %4, align 4
  store i32 %26, ptr %3, align 4
  br label %27

27:                                               ; preds = %25, %17, %9
  %28 = load i32, ptr %3, align 4
  ret i32 %28
}

; Function Attrs: nounwind uwtable
define internal i32 @ZSTD_highbit32(i32 noundef %0) #0 {
  %2 = alloca i32, align 4
  store i32 %0, ptr %2, align 4
  %3 = load i32, ptr %2, align 4
  %4 = call i32 @ZSTD_countLeadingZeros32(i32 noundef %3)
  %5 = sub i32 31, %4
  ret i32 %5
}

; Function Attrs: nounwind uwtable
define internal void @ZSTD_CCtxParams_init_internal(ptr noundef %0, ptr noundef %1, i32 noundef %2) #0 {
  %4 = alloca ptr, align 8
  %5 = alloca ptr, align 8
  %6 = alloca i32, align 4
  store ptr %0, ptr %4, align 8
  store ptr %1, ptr %5, align 8
  store i32 %2, ptr %6, align 4
  %7 = load ptr, ptr %4, align 8
  call void @llvm.memset.p0.i64(ptr align 8 %7, i8 0, i64 208, i1 false)
  %8 = load ptr, ptr %4, align 8
  %9 = getelementptr inbounds %struct.ZSTD_CCtx_params_s, ptr %8, i32 0, i32 1
  %10 = load ptr, ptr %5, align 8
  %11 = getelementptr inbounds %struct.ZSTD_parameters, ptr %10, i32 0, i32 0
  call void @llvm.memcpy.p0.p0.i64(ptr align 4 %9, ptr align 4 %11, i64 28, i1 false)
  %12 = load ptr, ptr %4, align 8
  %13 = getelementptr inbounds %struct.ZSTD_CCtx_params_s, ptr %12, i32 0, i32 2
  %14 = load ptr, ptr %5, align 8
  %15 = getelementptr inbounds %struct.ZSTD_parameters, ptr %14, i32 0, i32 1
  call void @llvm.memcpy.p0.p0.i64(ptr align 8 %13, ptr align 4 %15, i64 12, i1 false)
  %16 = load i32, ptr %6, align 4
  %17 = load ptr, ptr %4, align 8
  %18 = getelementptr inbounds %struct.ZSTD_CCtx_params_s, ptr %17, i32 0, i32 3
  store i32 %16, ptr %18, align 4
  %19 = load ptr, ptr %4, align 8
  %20 = getelementptr inbounds %struct.ZSTD_CCtx_params_s, ptr %19, i32 0, i32 20
  %21 = load i32, ptr %20, align 8
  %22 = load ptr, ptr %5, align 8
  %23 = getelementptr inbounds %struct.ZSTD_parameters, ptr %22, i32 0, i32 0
  %24 = call i32 @ZSTD_resolveRowMatchFinderMode(i32 noundef %21, ptr noundef %23)
  %25 = load ptr, ptr %4, align 8
  %26 = getelementptr inbounds %struct.ZSTD_CCtx_params_s, ptr %25, i32 0, i32 20
  store i32 %24, ptr %26, align 8
  %27 = load ptr, ptr %4, align 8
  %28 = getelementptr inbounds %struct.ZSTD_CCtx_params_s, ptr %27, i32 0, i32 19
  %29 = load i32, ptr %28, align 4
  %30 = load ptr, ptr %5, align 8
  %31 = getelementptr inbounds %struct.ZSTD_parameters, ptr %30, i32 0, i32 0
  %32 = call i32 @ZSTD_resolveBlockSplitterMode(i32 noundef %29, ptr noundef %31)
  %33 = load ptr, ptr %4, align 8
  %34 = getelementptr inbounds %struct.ZSTD_CCtx_params_s, ptr %33, i32 0, i32 19
  store i32 %32, ptr %34, align 4
  %35 = load ptr, ptr %4, align 8
  %36 = getelementptr inbounds %struct.ZSTD_CCtx_params_s, ptr %35, i32 0, i32 13
  %37 = getelementptr inbounds %struct.ldmParams_t, ptr %36, i32 0, i32 0
  %38 = load i32, ptr %37, align 8
  %39 = load ptr, ptr %5, align 8
  %40 = getelementptr inbounds %struct.ZSTD_parameters, ptr %39, i32 0, i32 0
  %41 = call i32 @ZSTD_resolveEnableLdm(i32 noundef %38, ptr noundef %40)
  %42 = load ptr, ptr %4, align 8
  %43 = getelementptr inbounds %struct.ZSTD_CCtx_params_s, ptr %42, i32 0, i32 13
  %44 = getelementptr inbounds %struct.ldmParams_t, ptr %43, i32 0, i32 0
  store i32 %41, ptr %44, align 8
  %45 = load ptr, ptr %4, align 8
  %46 = getelementptr inbounds %struct.ZSTD_CCtx_params_s, ptr %45, i32 0, i32 18
  %47 = load i32, ptr %46, align 8
  %48 = call i32 @ZSTD_resolveExternalSequenceValidation(i32 noundef %47)
  %49 = load ptr, ptr %4, align 8
  %50 = getelementptr inbounds %struct.ZSTD_CCtx_params_s, ptr %49, i32 0, i32 18
  store i32 %48, ptr %50, align 8
  %51 = load ptr, ptr %4, align 8
  %52 = getelementptr inbounds %struct.ZSTD_CCtx_params_s, ptr %51, i32 0, i32 26
  %53 = load i64, ptr %52, align 8
  %54 = call i64 @ZSTD_resolveMaxBlockSize(i64 noundef %53)
  %55 = load ptr, ptr %4, align 8
  %56 = getelementptr inbounds %struct.ZSTD_CCtx_params_s, ptr %55, i32 0, i32 26
  store i64 %54, ptr %56, align 8
  %57 = load ptr, ptr %4, align 8
  %58 = getelementptr inbounds %struct.ZSTD_CCtx_params_s, ptr %57, i32 0, i32 27
  %59 = load i32, ptr %58, align 8
  %60 = load i32, ptr %6, align 4
  %61 = call i32 @ZSTD_resolveExternalRepcodeSearch(i32 noundef %59, i32 noundef %60)
  %62 = load ptr, ptr %4, align 8
  %63 = getelementptr inbounds %struct.ZSTD_CCtx_params_s, ptr %62, i32 0, i32 27
  store i32 %61, ptr %63, align 8
  ret void
}

; Function Attrs: nounwind uwtable
define dso_local void @ZSTD_getCParams(ptr dead_on_unwind noalias writable sret(%struct.ZSTD_compressionParameters) align 4 %0, i32 noundef %1, i64 noundef %2, i64 noundef %3) #0 {
  %5 = alloca i32, align 4
  %6 = alloca i64, align 8
  %7 = alloca i64, align 8
  store i32 %1, ptr %5, align 4
  store i64 %2, ptr %6, align 8
  store i64 %3, ptr %7, align 8
  %8 = load i64, ptr %6, align 8
  %9 = icmp eq i64 %8, 0
  br i1 %9, label %10, label %11

10:                                               ; preds = %4
  store i64 -1, ptr %6, align 8
  br label %11

11:                                               ; preds = %10, %4
  %12 = load i32, ptr %5, align 4
  %13 = load i64, ptr %6, align 8
  %14 = load i64, ptr %7, align 8
  call void @ZSTD_getCParams_internal(ptr dead_on_unwind writable sret(%struct.ZSTD_compressionParameters) align 4 %0, i32 noundef %12, i64 noundef %13, i64 noundef %14, i32 noundef 3)
  ret void
}

; Function Attrs: nounwind uwtable
define dso_local void @ZSTD_getCParamsFromCDict(ptr dead_on_unwind noalias writable sret(%struct.ZSTD_compressionParameters) align 4 %0, ptr noundef %1) #0 {
  %3 = alloca ptr, align 8
  store ptr %1, ptr %3, align 8
  %4 = load ptr, ptr %3, align 8
  %5 = getelementptr inbounds %struct.ZSTD_CDict_s, ptr %4, i32 0, i32 5
  %6 = getelementptr inbounds %struct.ZSTD_matchState_t, ptr %5, i32 0, i32 16
  call void @llvm.memcpy.p0.p0.i64(ptr align 4 %0, ptr align 8 %6, i64 28, i1 false)
  ret void
}

; Function Attrs: nounwind uwtable
define internal i64 @ZSTD_compressBegin_usingCDict_internal(ptr noundef %0, ptr noundef %1, i64 %2, i32 %3, i64 noundef %4) #0 {
  %6 = alloca i64, align 8
  %7 = alloca %struct.ZSTD_frameParameters, align 4
  %8 = alloca { i64, i32 }, align 4
  %9 = alloca ptr, align 8
  %10 = alloca ptr, align 8
  %11 = alloca i64, align 8
  %12 = alloca %struct.ZSTD_CCtx_params_s, align 8
  %13 = alloca %struct.ZSTD_parameters, align 4
  %14 = alloca %struct.ZSTD_compressionParameters, align 4
  %15 = alloca %struct.ZSTD_compressionParameters, align 4
  %16 = alloca i32, align 4
  %17 = alloca i32, align 4
  %18 = getelementptr inbounds { i64, i32 }, ptr %8, i32 0, i32 0
  store i64 %2, ptr %18, align 4
  %19 = getelementptr inbounds { i64, i32 }, ptr %8, i32 0, i32 1
  store i32 %3, ptr %19, align 4
  call void @llvm.memcpy.p0.p0.i64(ptr align 4 %7, ptr align 4 %8, i64 12, i1 false)
  store ptr %0, ptr %9, align 8
  store ptr %1, ptr %10, align 8
  store i64 %4, ptr %11, align 8
  %20 = load ptr, ptr %10, align 8
  %21 = icmp eq ptr %20, null
  br i1 %21, label %22, label %23

22:                                               ; preds = %5
  store i64 -32, ptr %6, align 8
  br label %98

23:                                               ; preds = %5
  %24 = getelementptr inbounds %struct.ZSTD_parameters, ptr %13, i32 0, i32 1
  call void @llvm.memcpy.p0.p0.i64(ptr align 4 %24, ptr align 4 %7, i64 12, i1 false)
  %25 = getelementptr inbounds %struct.ZSTD_parameters, ptr %13, i32 0, i32 0
  %26 = load i64, ptr %11, align 8
  %27 = icmp ult i64 %26, 131072
  br i1 %27, label %43, label %28

28:                                               ; preds = %23
  %29 = load i64, ptr %11, align 8
  %30 = load ptr, ptr %10, align 8
  %31 = getelementptr inbounds %struct.ZSTD_CDict_s, ptr %30, i32 0, i32 1
  %32 = load i64, ptr %31, align 8
  %33 = mul i64 %32, 6
  %34 = icmp ult i64 %29, %33
  br i1 %34, label %43, label %35

35:                                               ; preds = %28
  %36 = load i64, ptr %11, align 8
  %37 = icmp eq i64 %36, -1
  br i1 %37, label %43, label %38

38:                                               ; preds = %35
  %39 = load ptr, ptr %10, align 8
  %40 = getelementptr inbounds %struct.ZSTD_CDict_s, ptr %39, i32 0, i32 9
  %41 = load i32, ptr %40, align 4
  %42 = icmp eq i32 %41, 0
  br i1 %42, label %43, label %45

43:                                               ; preds = %38, %35, %28, %23
  %44 = load ptr, ptr %10, align 8
  call void @ZSTD_getCParamsFromCDict(ptr dead_on_unwind writable sret(%struct.ZSTD_compressionParameters) align 4 %14, ptr noundef %44)
  call void @llvm.memcpy.p0.p0.i64(ptr align 4 %25, ptr align 4 %14, i64 28, i1 false)
  br label %53

45:                                               ; preds = %38
  %46 = load ptr, ptr %10, align 8
  %47 = getelementptr inbounds %struct.ZSTD_CDict_s, ptr %46, i32 0, i32 9
  %48 = load i32, ptr %47, align 4
  %49 = load i64, ptr %11, align 8
  %50 = load ptr, ptr %10, align 8
  %51 = getelementptr inbounds %struct.ZSTD_CDict_s, ptr %50, i32 0, i32 1
  %52 = load i64, ptr %51, align 8
  call void @ZSTD_getCParams(ptr dead_on_unwind writable sret(%struct.ZSTD_compressionParameters) align 4 %15, i32 noundef %48, i64 noundef %49, i64 noundef %52)
  call void @llvm.memcpy.p0.p0.i64(ptr align 4 %25, ptr align 4 %15, i64 28, i1 false)
  br label %53

53:                                               ; preds = %45, %43
  %54 = load ptr, ptr %10, align 8
  %55 = getelementptr inbounds %struct.ZSTD_CDict_s, ptr %54, i32 0, i32 9
  %56 = load i32, ptr %55, align 4
  call void @ZSTD_CCtxParams_init_internal(ptr noundef %12, ptr noundef %13, i32 noundef %56)
  %57 = load i64, ptr %11, align 8
  %58 = icmp ne i64 %57, -1
  br i1 %58, label %59, label %93

59:                                               ; preds = %53
  %60 = load i64, ptr %11, align 8
  %61 = icmp ult i64 %60, 524288
  br i1 %61, label %62, label %64

62:                                               ; preds = %59
  %63 = load i64, ptr %11, align 8
  br label %65

64:                                               ; preds = %59
  br label %65

65:                                               ; preds = %64, %62
  %66 = phi i64 [ %63, %62 ], [ 524288, %64 ]
  %67 = trunc i64 %66 to i32
  store i32 %67, ptr %16, align 4
  %68 = load i32, ptr %16, align 4
  %69 = icmp ugt i32 %68, 1
  br i1 %69, label %70, label %75

70:                                               ; preds = %65
  %71 = load i32, ptr %16, align 4
  %72 = sub i32 %71, 1
  %73 = call i32 @ZSTD_highbit32(i32 noundef %72)
  %74 = add i32 %73, 1
  br label %76

75:                                               ; preds = %65
  br label %76

76:                                               ; preds = %75, %70
  %77 = phi i32 [ %74, %70 ], [ 1, %75 ]
  store i32 %77, ptr %17, align 4
  %78 = getelementptr inbounds %struct.ZSTD_CCtx_params_s, ptr %12, i32 0, i32 1
  %79 = getelementptr inbounds %struct.ZSTD_compressionParameters, ptr %78, i32 0, i32 0
  %80 = load i32, ptr %79, align 4
  %81 = load i32, ptr %17, align 4
  %82 = icmp ugt i32 %80, %81
  br i1 %82, label %83, label %87

83:                                               ; preds = %76
  %84 = getelementptr inbounds %struct.ZSTD_CCtx_params_s, ptr %12, i32 0, i32 1
  %85 = getelementptr inbounds %struct.ZSTD_compressionParameters, ptr %84, i32 0, i32 0
  %86 = load i32, ptr %85, align 4
  br label %89

87:                                               ; preds = %76
  %88 = load i32, ptr %17, align 4
  br label %89

89:                                               ; preds = %87, %83
  %90 = phi i32 [ %86, %83 ], [ %88, %87 ]
  %91 = getelementptr inbounds %struct.ZSTD_CCtx_params_s, ptr %12, i32 0, i32 1
  %92 = getelementptr inbounds %struct.ZSTD_compressionParameters, ptr %91, i32 0, i32 0
  store i32 %90, ptr %92, align 4
  br label %93

93:                                               ; preds = %89, %53
  %94 = load ptr, ptr %9, align 8
  %95 = load ptr, ptr %10, align 8
  %96 = load i64, ptr %11, align 8
  %97 = call i64 @ZSTD_compressBegin_internal(ptr noundef %94, ptr noundef null, i64 noundef 0, i32 noundef 0, i32 noundef 0, ptr noundef %95, ptr noundef %12, i64 noundef %96, i32 noundef 0)
  store i64 %97, ptr %6, align 8
  br label %98

98:                                               ; preds = %93, %22
  %99 = load i64, ptr %6, align 8
  ret i64 %99
}