; Function Attrs: nounwind uwtable
define internal fastcc range(i64 -119, 1) i64 @ZSTD_compressBegin_usingCDict_internal(ptr noundef %0, ptr noundef %1, i64 %2, i32 %3, i64 noundef %4) unnamed_addr #1 {
  %6 = alloca %struct.ZSTD_CCtx_params_s, align 8
  %.sroa.6 = alloca { i32, i32, i32, i32, i32 }, align 8
  %7 = alloca %struct.ZSTD_compressionParameters, align 4
  %8 = icmp eq ptr %1, null
  br i1 %8, label %58, label %9

9:                                                ; preds = %5
  %10 = icmp ult i64 %4, 131072
  br i1 %10, label %21, label %11

11:                                               ; preds = %9
  %12 = getelementptr inbounds nuw i8, ptr %1, i64 8
  %13 = load i64, ptr %12, align 8
  %14 = mul i64 %13, 6
  %15 = icmp ult i64 %4, %14
  %16 = icmp eq i64 %4, -1
  %or.cond = or i1 %16, %15
  br i1 %or.cond, label %21, label %17

17:                                               ; preds = %11
  %18 = getelementptr inbounds nuw i8, ptr %1, i64 6068
  %19 = load i32, ptr %18, align 4
  %20 = icmp eq i32 %19, 0
  br i1 %20, label %21, label %23

21:                                               ; preds = %17, %11, %9
  %22 = getelementptr inbounds nuw i8, ptr %1, i64 360
  %.sroa.043.0.copyload = load i32, ptr %22, align 8
  %.sroa.2.0..sroa_idx = getelementptr inbounds nuw i8, ptr %1, i64 364
  call void @llvm.memcpy.p0.p0.i64(ptr noundef nonnull align 8 dereferenceable(20) %.sroa.6, ptr noundef nonnull align 4 dereferenceable(20) %.sroa.2.0..sroa_idx, i64 20, i1 false)
  %.sroa.3.0..sroa_idx = getelementptr inbounds nuw i8, ptr %1, i64 384
  %.sroa.3.0.copyload = load i32, ptr %.sroa.3.0..sroa_idx, align 8
  %.phi.trans.insert = getelementptr inbounds nuw i8, ptr %1, i64 6068
  %.pre = load i32, ptr %.phi.trans.insert, align 4
  br label %24

23:                                               ; preds = %17
  call fastcc void @ZSTD_getCParams_internal(ptr dead_on_unwind noalias nonnull writable align 4 %7, i32 noundef %19, i64 noundef %4, i64 noundef %13, i32 noundef 3), !alias.scope !51
  %.sroa.0.0.copyload = load i32, ptr %7, align 4
  %.sroa.6.0..sroa_idx = getelementptr inbounds nuw i8, ptr %7, i64 4
  call void @llvm.memcpy.p0.p0.i64(ptr noundef nonnull align 8 dereferenceable(20) %.sroa.6, ptr noundef nonnull align 4 dereferenceable(20) %.sroa.6.0..sroa_idx, i64 20, i1 false)
  %.sroa.636.0..sroa_idx = getelementptr inbounds nuw i8, ptr %7, i64 24
  %.sroa.636.0.copyload = load i32, ptr %.sroa.636.0..sroa_idx, align 4
  br label %24

24:                                               ; preds = %23, %21
  %25 = phi i32 [ %.pre, %21 ], [ %19, %23 ]
  %.sroa.636.0 = phi i32 [ %.sroa.3.0.copyload, %21 ], [ %.sroa.636.0.copyload, %23 ]
  %.sroa.0.0 = phi i32 [ %.sroa.043.0.copyload, %21 ], [ %.sroa.0.0.copyload, %23 ]
  call void @llvm.memset.p0.i64(ptr noundef nonnull align 8 dereferenceable(208) %6, i8 0, i64 208, i1 false)
  %26 = getelementptr inbounds nuw i8, ptr %6, i64 4
  store i32 %.sroa.0.0, ptr %26, align 4
  %.sroa.6.0..sroa_idx35 = getelementptr inbounds nuw i8, ptr %6, i64 8
  call void @llvm.memcpy.p0.p0.i64(ptr noundef nonnull align 8 dereferenceable(20) %.sroa.6.0..sroa_idx35, ptr noundef nonnull align 8 dereferenceable(20) %.sroa.6, i64 20, i1 false)
  %.sroa.636.0..sroa_idx39 = getelementptr inbounds nuw i8, ptr %6, i64 28
  store i32 %.sroa.636.0, ptr %.sroa.636.0..sroa_idx39, align 4
  %27 = getelementptr inbounds nuw i8, ptr %6, i64 32
  store i64 %2, ptr %27, align 8
  %.sroa.11.28..sroa_idx = getelementptr inbounds nuw i8, ptr %6, i64 40
  store i32 %3, ptr %.sroa.11.28..sroa_idx, align 8
  %28 = getelementptr inbounds nuw i8, ptr %6, i64 44
  store i32 %25, ptr %28, align 4
  %29 = getelementptr inbounds nuw i8, ptr %6, i64 144
  %30 = add i32 %.sroa.636.0, -6
  %31 = icmp ult i32 %30, -3
  br i1 %31, label %32, label %35

32:                                               ; preds = %24
  store i32 2, ptr %29, align 8
  %33 = getelementptr inbounds nuw i8, ptr %6, i64 140
  %34 = icmp ugt i32 %.sroa.636.0, 6
  br i1 %34, label %38, label %.thread47

.thread47:                                        ; preds = %32
  store i32 2, ptr %33, align 4
  br label %ZSTD_CCtxParams_init_internal.exit

35:                                               ; preds = %24
  %36 = icmp ugt i32 %.sroa.0.0, 14
  %spec.select.i.i = select i1 %36, i32 1, i32 2
  store i32 %spec.select.i.i, ptr %29, align 8
  %37 = getelementptr inbounds nuw i8, ptr %6, i64 140
  store i32 2, ptr %37, align 4
  br label %ZSTD_CCtxParams_init_internal.exit

38:                                               ; preds = %32
  %39 = icmp ugt i32 %.sroa.0.0, 16
  %40 = select i1 %39, i32 1, i32 2
  store i32 %40, ptr %33, align 4
  %41 = icmp ugt i32 %.sroa.0.0, 26
  %42 = select i1 %41, i32 1, i32 2
  br label %ZSTD_CCtxParams_init_internal.exit

ZSTD_CCtxParams_init_internal.exit:               ; preds = %35, %.thread47, %38
  %.0.i25.i = phi i32 [ 2, %35 ], [ %42, %38 ], [ 2, %.thread47 ]
  %43 = getelementptr inbounds nuw i8, ptr %6, i64 96
  store i32 %.0.i25.i, ptr %43, align 8
  %44 = getelementptr inbounds nuw i8, ptr %6, i64 192
  store i64 131072, ptr %44, align 8
  %45 = getelementptr inbounds nuw i8, ptr %6, i64 200
  %46 = icmp slt i32 %25, 10
  %..i27.i = select i1 %46, i32 2, i32 1
  store i32 %..i27.i, ptr %45, align 8
  %.not = icmp eq i64 %4, -1
  br i1 %.not, label %.sink.split, label %47

47:                                               ; preds = %ZSTD_CCtxParams_init_internal.exit
  %48 = icmp ugt i64 %4, 1
  br i1 %48, label %49, label %.split25

49:                                               ; preds = %47
  %50 = tail call i64 @llvm.umin.i64(i64 %4, i64 524288)
  %51 = trunc nuw nsw i64 %50 to i32
  %52 = add nsw i32 %51, -1
  %53 = tail call range(i32 0, 32) i32 @llvm.ctlz.i32(i32 %52, i1 true)
  %54 = sub nuw nsw i32 32, %53
  br label %.split25

.split25:                                         ; preds = %47, %49
  %55 = phi i32 [ %54, %49 ], [ 1, %47 ]
  %56 = tail call i32 @llvm.umax.i32(i32 %.sroa.0.0, i32 %55)
  store i32 %56, ptr %26, align 4
  br label %.sink.split

.sink.split:                                      ; preds = %ZSTD_CCtxParams_init_internal.exit, %.split25
  %.sink = phi i64 [ %4, %.split25 ], [ -1, %ZSTD_CCtxParams_init_internal.exit ]
  %57 = call fastcc i64 @ZSTD_compressBegin_internal(ptr noundef %0, ptr noundef null, i64 noundef 0, i32 noundef 0, i32 noundef 0, ptr noundef nonnull %1, ptr noundef nonnull %6, i64 noundef %.sink, i32 noundef 0)
  br label %58

58:                                               ; preds = %.sink.split, %5
  %.0 = phi i64 [ -32, %5 ], [ %57, %.sink.split ]
  ret i64 %.0
}